; ModuleID = 'source-C-CXX/27/128.c'
source_filename = "source-C-CXX/27/128.c"
target datalayout = "e-m:e-p270:32:32-p271:32:32-p272:64:64-i64:64-f80:128-n8:16:32:64-S128"
target triple = "x86_64-pc-linux-gnu"

@.str = private unnamed_addr constant [3 x i8] c"%d\00", align 1

; Function Attrs: nounwind sspstrong uwtable
define dso_local void @main() local_unnamed_addr #0 {
  %1 = alloca [1000 x i8], align 16
  %2 = alloca [300 x i32], align 16
  %3 = getelementptr inbounds [1000 x i8], [1000 x i8]* %1, i64 0, i64 0
  call void @llvm.lifetime.start.p0i8(i64 1000, i8* nonnull %3) #6
  %4 = bitcast [300 x i32]* %2 to i8*
  call void @llvm.lifetime.start.p0i8(i64 1200, i8* nonnull %4) #6
  call void @llvm.memset.p0i8.i64(i8* noundef nonnull align 16 dereferenceable(1200) %4, i8 0, i64 1200, i1 false)
  %5 = call i32 (i8*, ...) bitcast (i32 (...)* @gets to i32 (i8*, ...)*)(i8* nonnull %3) #6
  br label %6

6:                                                ; preds = %20, %0
  %7 = phi i64 [ %24, %20 ], [ 0, %0 ]
  %8 = phi i32 [ %23, %20 ], [ 0, %0 ]
  %9 = getelementptr inbounds [1000 x i8], [1000 x i8]* %1, i64 0, i64 %7
  %10 = load i8, i8* %9, align 1, !tbaa !5
  switch i8 %10, label %15 [
    i8 0, label %11
    i8 32, label %20
  ]

11:                                               ; preds = %6
  %12 = zext i32 %8 to i64
  %13 = add nuw i32 %8, 1
  %14 = zext i32 %13 to i64
  br label %25

15:                                               ; preds = %6
  %16 = zext i32 %8 to i64
  %17 = getelementptr inbounds [300 x i32], [300 x i32]* %2, i64 0, i64 %16
  %18 = load i32, i32* %17, align 4, !tbaa !8
  %19 = add nsw i32 %18, 1
  store i32 %19, i32* %17, align 4, !tbaa !8
  br label %20

20:                                               ; preds = %6, %15
  %21 = icmp eq i8 %10, 32
  %22 = zext i1 %21 to i32
  %23 = add nuw nsw i32 %8, %22
  %24 = add nuw i64 %7, 1
  br label %6, !llvm.loop !10

25:                                               ; preds = %11, %35
  %26 = phi i64 [ 0, %11 ], [ %36, %35 ]
  %27 = getelementptr inbounds [300 x i32], [300 x i32]* %2, i64 0, i64 %26
  %28 = load i32, i32* %27, align 4, !tbaa !8
  %29 = icmp eq i32 %28, 0
  br i1 %29, label %35, label %30

30:                                               ; preds = %25
  %31 = call i32 (i8*, ...) @printf(i8* nonnull dereferenceable(1) getelementptr inbounds ([3 x i8], [3 x i8]* @.str, i64 0, i64 0), i32 %28)
  %32 = icmp ult i64 %26, %12
  br i1 %32, label %33, label %35

33:                                               ; preds = %30
  %34 = call i32 @putchar(i32 44)
  br label %35

35:                                               ; preds = %25, %33, %30
  %36 = add nuw nsw i64 %26, 1
  %37 = icmp eq i64 %36, %14
  br i1 %37, label %38, label %25, !llvm.loop !12

38:                                               ; preds = %35
  call void @llvm.lifetime.end.p0i8(i64 1200, i8* nonnull %4) #6
  call void @llvm.lifetime.end.p0i8(i64 1000, i8* nonnull %3) #6
  ret void
}

; Function Attrs: argmemonly mustprogress nofree nosync nounwind willreturn
declare void @llvm.lifetime.start.p0i8(i64 immarg, i8* nocapture) #1

; Function Attrs: argmemonly mustprogress nofree nounwind willreturn writeonly
declare void @llvm.memset.p0i8.i64(i8* nocapture writeonly, i8, i64, i1 immarg) #2

declare i32 @gets(...) local_unnamed_addr #3

; Function Attrs: nofree nounwind
declare noundef i32 @printf(i8* nocapture noundef readonly, ...) local_unnamed_addr #4

; Function Attrs: argmemonly mustprogress nofree nosync nounwind willreturn
declare void @llvm.lifetime.end.p0i8(i64 immarg, i8* nocapture) #1

; Function Attrs: nofree nounwind
declare noundef i32 @putchar(i32 noundef) local_unnamed_addr #5


!llvm.module.flags = !{!0, !1, !2, !3}
!llvm.ident = !{!4}

!0 = !{i32 1, !"wchar_size", i32 4}
!1 = !{i32 7, !"PIC Level", i32 2}
!2 = !{i32 7, !"PIE Level", i32 2}
!3 = !{i32 7, !"uwtable", i32 1}
!4 = !{!"clang version 13.0.0"}
!5 = !{!6, !6, i64 0}
!6 = !{!"omnipotent char", !7, i64 0}
!7 = !{!"Simple C/C++ TBAA"}
!8 = !{!9, !9, i64 0}
!9 = !{!"int", !6, i64 0}
!10 = distinct !{!10, !11}
!11 = !{!"llvm.loop.mustprogress"}
!12 = distinct !{!12, !11}
